; Function Attrs: mustprogress uwtable
define hidden { i64, i64 } @_ZN10duckdb_re28Compiler7DotStarEv(ptr noundef nonnull align 8 captures(none) dereferenceable(228) %0) local_unnamed_addr #0 align 2 {
  %2 = alloca %"struct.duckdb_re2::Frag", align 8
  %3 = alloca %"struct.duckdb_re2::Frag", align 8
  call void @llvm.lifetime.start.p0(i64 16, ptr nonnull %3)
  %4 = tail call noundef i32 @_ZN10duckdb_re28Compiler9AllocInstEi(ptr noundef nonnull align 8 dereferenceable(228) %0, i32 noundef 1)
  %5 = icmp slt i32 %4, 0
  br i1 %5, label %6, label %7

6:                                                ; preds = %1
  call void @llvm.lifetime.start.p0(i64 16, ptr nonnull %2)
  store i32 0, ptr %2, align 8, !tbaa !71
  %.4..4..4..4..4..4..4..sroa_idx = getelementptr inbounds nuw i8, ptr %2, i64 4
  store i64 0, ptr %.4..4..4..4..4..4..4..sroa_idx, align 4
  %.12..12..12..12..12..12..12..sroa_idx = getelementptr inbounds nuw i8, ptr %2, i64 12
  store i8 0, ptr %.12..12..12..12..12..12..12..sroa_idx, align 4, !tbaa !72
  %.0..0..0..0..0..0..0..fca.0.load.i.i = load i64, ptr %2, align 8
  %.8..8..8..8..8..8..8..fca.1.gep.sroa_idx = getelementptr inbounds nuw i8, ptr %2, i64 8
  %.8..8..8..8..8..8..8..fca.1.load.i.i = load i64, ptr %.8..8..8..8..8..8..8..fca.1.gep.sroa_idx, align 8
  call void @llvm.lifetime.end.p0(i64 16, ptr nonnull %2)
  %.sroa.2.0.extract.trunc.i = trunc i64 %.8..8..8..8..8..8..8..fca.1.load.i.i to i40
  %.8..8..8..8..8..sroa_idx = getelementptr inbounds nuw i8, ptr %3, i64 8
  store i40 %.sroa.2.0.extract.trunc.i, ptr %.8..8..8..8..8..sroa_idx, align 8
  br label %_ZN10duckdb_re28Compiler9ByteRangeEiib.exit

7:                                                ; preds = %1
  %8 = zext nneg i32 %4 to i64
  %9 = getelementptr inbounds nuw i8, ptr %0, i64 128
  %10 = load ptr, ptr %9, align 8, !tbaa !55
  %11 = getelementptr inbounds nuw %"class.duckdb_re2::Prog::Inst", ptr %10, i64 %8
  tail call void @_ZN10duckdb_re24Prog4Inst13InitByteRangeEiiij(ptr noundef nonnull align 4 dereferenceable(8) %11, i32 noundef 0, i32 noundef 255, i32 noundef 0, i32 noundef 0)
  %12 = shl nuw i32 %4, 1
  %.sroa.2.0.insert.ext.i.i = zext i32 %12 to i64
  %.sroa.0.0.insert.insert.i.i = mul nuw i64 %.sroa.2.0.insert.ext.i.i, 4294967297
  store i32 %4, ptr %3, align 8, !tbaa !71
  %.4..4..4..4..4..sroa_idx = getelementptr inbounds nuw i8, ptr %3, i64 4
  store i64 %.sroa.0.0.insert.insert.i.i, ptr %.4..4..4..4..4..sroa_idx, align 4
  %.12..12..12..12..12..sroa_idx = getelementptr inbounds nuw i8, ptr %3, i64 12
  store i8 0, ptr %.12..12..12..12..12..sroa_idx, align 4, !tbaa !72
  %.0..0..0..0..0..fca.0.load.pre.i = load i64, ptr %3, align 8
  br label %_ZN10duckdb_re28Compiler9ByteRangeEiib.exit

_ZN10duckdb_re28Compiler9ByteRangeEiib.exit:      ; preds = %6, %7
  %.0..0..fca.0.load.i = phi i64 [ %.0..0..0..0..0..fca.0.load.pre.i, %7 ], [ %.0..0..0..0..0..0..0..fca.0.load.i.i, %6 ]
  %.8..8..8..8..8..fca.1.gep.sroa_idx = getelementptr inbounds nuw i8, ptr %3, i64 8
  %.8..8..8..8..8..fca.1.load.i = load i64, ptr %.8..8..8..8..8..fca.1.gep.sroa_idx, align 8
  call void @llvm.lifetime.end.p0(i64 16, ptr nonnull %3)
  %.sroa.26.8.insert.ext = and i64 %.8..8..8..8..8..fca.1.load.i, 1099511627775
  %13 = tail call { i64, i64 } @_ZN10duckdb_re28Compiler4StarENS_4FragEb(ptr noundef nonnull align 8 dereferenceable(228) %0, i64 %.0..0..fca.0.load.i, i64 %.sroa.26.8.insert.ext, i1 noundef zeroext true)
  %.fca.1.extract = extractvalue { i64, i64 } %13, 1
  %.sroa.28.8.insert.ext = and i64 %.fca.1.extract, 1099511627775
  %.fca.1.insert = insertvalue { i64, i64 } %13, i64 %.sroa.28.8.insert.ext, 1
  ret { i64, i64 } %.fca.1.insert
}